target datalayout = "e-m:e-p270:32:32-p271:32:32-p272:64:64-i64:64-i128:128-f80:128-n8:16:32:64-S128"
target triple = "x86_64-pc-linux-gnu"

%struct.GetBitContext = type { ptr, ptr, i32, i32, i32 }
%struct.TM2Codes = type { %struct.VLC, i32, ptr, i32 }
%struct.VLC = type { i32, ptr, i32, i32 }
%struct.VLCElem = type { %union.anon.1 }
%union.anon.1 = type { %struct.anon }
%struct.anon = type { i16, i16 }

; Function Attrs: alwaysinline nounwind willreturn memory(none) uwtable
define internal i32 @av_bswap32(i32 noundef %0) #8 {
  %2 = alloca i32, align 4
  store i32 %0, ptr %2, align 4, !tbaa !32
  %3 = load i32, ptr %2, align 4, !tbaa !32
  %4 = shl i32 %3, 8
  %5 = and i32 %4, 65280
  %6 = load i32, ptr %2, align 4, !tbaa !32
  %7 = lshr i32 %6, 8
  %8 = and i32 %7, 255
  %9 = or i32 %5, %8
  %10 = shl i32 %9, 16
  %11 = load i32, ptr %2, align 4, !tbaa !32
  %12 = lshr i32 %11, 16
  %13 = shl i32 %12, 8
  %14 = and i32 %13, 65280
  %15 = load i32, ptr %2, align 4, !tbaa !32
  %16 = lshr i32 %15, 16
  %17 = lshr i32 %16, 8
  %18 = and i32 %17, 255
  %19 = or i32 %14, %18
  %20 = or i32 %10, %19
  ret i32 %20
}

; Function Attrs: alwaysinline nounwind uwtable
define internal i32 @get_vlc2(ptr noundef %0, ptr noundef %1, i32 noundef %2, i32 noundef %3) #6 {
  %5 = alloca ptr, align 8
  %6 = alloca ptr, align 8
  %7 = alloca i32, align 4
  %8 = alloca i32, align 4
  %9 = alloca i32, align 4
  %10 = alloca i32, align 4
  %11 = alloca i32, align 4
  %12 = alloca i32, align 4
  %13 = alloca i32, align 4
  %14 = alloca i32, align 4
  %15 = alloca i32, align 4
  store ptr %0, ptr %5, align 8, !tbaa !93
  store ptr %1, ptr %6, align 8, !tbaa !119
  store i32 %2, ptr %7, align 4, !tbaa !32
  store i32 %3, ptr %8, align 4, !tbaa !32
  call void @llvm.lifetime.start.p0(i64 4, ptr %9) #10
  call void @llvm.lifetime.start.p0(i64 4, ptr %10) #10
  %16 = load ptr, ptr %5, align 8, !tbaa !93
  %17 = getelementptr inbounds nuw %struct.GetBitContext, ptr %16, i32 0, i32 2
  %18 = load i32, ptr %17, align 8, !tbaa !99
  store i32 %18, ptr %10, align 4, !tbaa !32
  call void @llvm.lifetime.start.p0(i64 4, ptr %11) #10
  call void @llvm.lifetime.start.p0(i64 4, ptr %12) #10
  %19 = load ptr, ptr %5, align 8, !tbaa !93
  %20 = getelementptr inbounds nuw %struct.GetBitContext, ptr %19, i32 0, i32 4
  %21 = load i32, ptr %20, align 8, !tbaa !97
  store i32 %21, ptr %12, align 4, !tbaa !32
  %22 = load ptr, ptr %5, align 8, !tbaa !93
  %23 = getelementptr inbounds nuw %struct.GetBitContext, ptr %22, i32 0, i32 0
  %24 = load ptr, ptr %23, align 8, !tbaa !95
  %25 = load i32, ptr %10, align 4, !tbaa !32
  %26 = lshr i32 %25, 3
  %27 = zext i32 %26 to i64
  %28 = getelementptr inbounds nuw i8, ptr %24, i64 %27
  %29 = load i32, ptr %28, align 1, !tbaa !75
  %30 = call i32 @av_bswap32(i32 noundef %29) #11
  %31 = load i32, ptr %10, align 4, !tbaa !32
  %32 = and i32 %31, 7
  %33 = shl i32 %30, %32
  %34 = lshr i32 %33, 0
  store i32 %34, ptr %11, align 4, !tbaa !32
  br label %35

35:                                               ; preds = %4
  call void @llvm.lifetime.start.p0(i64 4, ptr %13) #10
  call void @llvm.lifetime.start.p0(i64 4, ptr %14) #10
  call void @llvm.lifetime.start.p0(i64 4, ptr %15) #10
  %36 = load i32, ptr %11, align 4, !tbaa !32
  %37 = load i32, ptr %7, align 4, !tbaa !32
  %38 = sub nsw i32 32, %37
  %39 = lshr i32 %36, %38
  store i32 %39, ptr %15, align 4, !tbaa !32
  %40 = load ptr, ptr %6, align 8, !tbaa !119
  %41 = load i32, ptr %15, align 4, !tbaa !32
  %42 = zext i32 %41 to i64
  %43 = getelementptr inbounds nuw %struct.VLCElem, ptr %40, i64 %42
  %44 = getelementptr inbounds nuw %struct.VLCElem, ptr %43, i32 0, i32 0
  %45 = getelementptr inbounds nuw %struct.anon, ptr %44, i32 0, i32 0
  %46 = load i16, ptr %45, align 2, !tbaa !75
  %47 = sext i16 %46 to i32
  store i32 %47, ptr %9, align 4, !tbaa !32
  %48 = load ptr, ptr %6, align 8, !tbaa !119
  %49 = load i32, ptr %15, align 4, !tbaa !32
  %50 = zext i32 %49 to i64
  %51 = getelementptr inbounds nuw %struct.VLCElem, ptr %48, i64 %50
  %52 = getelementptr inbounds nuw %struct.VLCElem, ptr %51, i32 0, i32 0
  %53 = getelementptr inbounds nuw %struct.anon, ptr %52, i32 0, i32 1
  %54 = load i16, ptr %53, align 2, !tbaa !75
  %55 = sext i16 %54 to i32
  store i32 %55, ptr %13, align 4, !tbaa !32
  %56 = load i32, ptr %8, align 4, !tbaa !32
  %57 = icmp sgt i32 %56, 1
  br i1 %57, label %58, label %169

58:                                               ; preds = %35
  %59 = load i32, ptr %13, align 4, !tbaa !32
  %60 = icmp slt i32 %59, 0
  br i1 %60, label %61, label %169

61:                                               ; preds = %58
  %62 = load i32, ptr %12, align 4, !tbaa !32
  %63 = load i32, ptr %10, align 4, !tbaa !32
  %64 = load i32, ptr %7, align 4, !tbaa !32
  %65 = add i32 %63, %64
  %66 = icmp ugt i32 %62, %65
  br i1 %66, label %67, label %71

67:                                               ; preds = %61
  %68 = load i32, ptr %10, align 4, !tbaa !32
  %69 = load i32, ptr %7, align 4, !tbaa !32
  %70 = add i32 %68, %69
  br label %73

71:                                               ; preds = %61
  %72 = load i32, ptr %12, align 4, !tbaa !32
  br label %73

73:                                               ; preds = %71, %67
  %74 = phi i32 [ %70, %67 ], [ %72, %71 ]
  store i32 %74, ptr %10, align 4, !tbaa !32
  %75 = load ptr, ptr %5, align 8, !tbaa !93
  %76 = getelementptr inbounds nuw %struct.GetBitContext, ptr %75, i32 0, i32 0
  %77 = load ptr, ptr %76, align 8, !tbaa !95
  %78 = load i32, ptr %10, align 4, !tbaa !32
  %79 = lshr i32 %78, 3
  %80 = zext i32 %79 to i64
  %81 = getelementptr inbounds nuw i8, ptr %77, i64 %80
  %82 = load i32, ptr %81, align 1, !tbaa !75
  %83 = call i32 @av_bswap32(i32 noundef %82) #11
  %84 = load i32, ptr %10, align 4, !tbaa !32
  %85 = and i32 %84, 7
  %86 = shl i32 %83, %85
  %87 = lshr i32 %86, 0
  store i32 %87, ptr %11, align 4, !tbaa !32
  %88 = load i32, ptr %13, align 4, !tbaa !32
  %89 = sub nsw i32 0, %88
  store i32 %89, ptr %14, align 4, !tbaa !32
  %90 = load i32, ptr %11, align 4, !tbaa !32
  %91 = load i32, ptr %14, align 4, !tbaa !32
  %92 = sub nsw i32 32, %91
  %93 = lshr i32 %90, %92
  %94 = load i32, ptr %9, align 4, !tbaa !32
  %95 = add i32 %93, %94
  store i32 %95, ptr %15, align 4, !tbaa !32
  %96 = load ptr, ptr %6, align 8, !tbaa !119
  %97 = load i32, ptr %15, align 4, !tbaa !32
  %98 = zext i32 %97 to i64
  %99 = getelementptr inbounds nuw %struct.VLCElem, ptr %96, i64 %98
  %100 = getelementptr inbounds nuw %struct.VLCElem, ptr %99, i32 0, i32 0
  %101 = getelementptr inbounds nuw %struct.anon, ptr %100, i32 0, i32 0
  %102 = load i16, ptr %101, align 2, !tbaa !75
  %103 = sext i16 %102 to i32
  store i32 %103, ptr %9, align 4, !tbaa !32
  %104 = load ptr, ptr %6, align 8, !tbaa !119
  %105 = load i32, ptr %15, align 4, !tbaa !32
  %106 = zext i32 %105 to i64
  %107 = getelementptr inbounds nuw %struct.VLCElem, ptr %104, i64 %106
  %108 = getelementptr inbounds nuw %struct.VLCElem, ptr %107, i32 0, i32 0
  %109 = getelementptr inbounds nuw %struct.anon, ptr %108, i32 0, i32 1
  %110 = load i16, ptr %109, align 2, !tbaa !75
  %111 = sext i16 %110 to i32
  store i32 %111, ptr %13, align 4, !tbaa !32
  %112 = load i32, ptr %8, align 4, !tbaa !32
  %113 = icmp sgt i32 %112, 2
  br i1 %113, label %114, label %168

114:                                              ; preds = %73
  %115 = load i32, ptr %13, align 4, !tbaa !32
  %116 = icmp slt i32 %115, 0
  br i1 %116, label %117, label %168

117:                                              ; preds = %114
  %118 = load i32, ptr %12, align 4, !tbaa !32
  %119 = load i32, ptr %10, align 4, !tbaa !32
  %120 = load i32, ptr %14, align 4, !tbaa !32
  %121 = add i32 %119, %120
  %122 = icmp ugt i32 %118, %121
  br i1 %122, label %123, label %127

123:                                              ; preds = %117
  %124 = load i32, ptr %10, align 4, !tbaa !32
  %125 = load i32, ptr %14, align 4, !tbaa !32
  %126 = add i32 %124, %125
  br label %129

127:                                              ; preds = %117
  %128 = load i32, ptr %12, align 4, !tbaa !32
  br label %129

129:                                              ; preds = %127, %123
  %130 = phi i32 [ %126, %123 ], [ %128, %127 ]
  store i32 %130, ptr %10, align 4, !tbaa !32
  %131 = load ptr, ptr %5, align 8, !tbaa !93
  %132 = getelementptr inbounds nuw %struct.GetBitContext, ptr %131, i32 0, i32 0
  %133 = load ptr, ptr %132, align 8, !tbaa !95
  %134 = load i32, ptr %10, align 4, !tbaa !32
  %135 = lshr i32 %134, 3
  %136 = zext i32 %135 to i64
  %137 = getelementptr inbounds nuw i8, ptr %133, i64 %136
  %138 = load i32, ptr %137, align 1, !tbaa !75
  %139 = call i32 @av_bswap32(i32 noundef %138) #11
  %140 = load i32, ptr %10, align 4, !tbaa !32
  %141 = and i32 %140, 7
  %142 = shl i32 %139, %141
  %143 = lshr i32 %142, 0
  store i32 %143, ptr %11, align 4, !tbaa !32
  %144 = load i32, ptr %13, align 4, !tbaa !32
  %145 = sub nsw i32 0, %144
  store i32 %145, ptr %14, align 4, !tbaa !32
  %146 = load i32, ptr %11, align 4, !tbaa !32
  %147 = load i32, ptr %14, align 4, !tbaa !32
  %148 = sub nsw i32 32, %147
  %149 = lshr i32 %146, %148
  %150 = load i32, ptr %9, align 4, !tbaa !32
  %151 = add i32 %149, %150
  store i32 %151, ptr %15, align 4, !tbaa !32
  %152 = load ptr, ptr %6, align 8, !tbaa !119
  %153 = load i32, ptr %15, align 4, !tbaa !32
  %154 = zext i32 %153 to i64
  %155 = getelementptr inbounds nuw %struct.VLCElem, ptr %152, i64 %154
  %156 = getelementptr inbounds nuw %struct.VLCElem, ptr %155, i32 0, i32 0
  %157 = getelementptr inbounds nuw %struct.anon, ptr %156, i32 0, i32 0
  %158 = load i16, ptr %157, align 2, !tbaa !75
  %159 = sext i16 %158 to i32
  store i32 %159, ptr %9, align 4, !tbaa !32
  %160 = load ptr, ptr %6, align 8, !tbaa !119
  %161 = load i32, ptr %15, align 4, !tbaa !32
  %162 = zext i32 %161 to i64
  %163 = getelementptr inbounds nuw %struct.VLCElem, ptr %160, i64 %162
  %164 = getelementptr inbounds nuw %struct.VLCElem, ptr %163, i32 0, i32 0
  %165 = getelementptr inbounds nuw %struct.anon, ptr %164, i32 0, i32 1
  %166 = load i16, ptr %165, align 2, !tbaa !75
  %167 = sext i16 %166 to i32
  store i32 %167, ptr %13, align 4, !tbaa !32
  br label %168

168:                                              ; preds = %129, %114, %73
  br label %169

169:                                              ; preds = %168, %58, %35
  br label %170

170:                                              ; preds = %169
  %171 = load i32, ptr %13, align 4, !tbaa !32
  %172 = load i32, ptr %11, align 4, !tbaa !32
  %173 = shl i32 %172, %171
  store i32 %173, ptr %11, align 4, !tbaa !32
  %174 = load i32, ptr %12, align 4, !tbaa !32
  %175 = load i32, ptr %10, align 4, !tbaa !32
  %176 = load i32, ptr %13, align 4, !tbaa !32
  %177 = add i32 %175, %176
  %178 = icmp ugt i32 %174, %177
  br i1 %178, label %179, label %183

179:                                              ; preds = %170
  %180 = load i32, ptr %10, align 4, !tbaa !32
  %181 = load i32, ptr %13, align 4, !tbaa !32
  %182 = add i32 %180, %181
  br label %185

183:                                              ; preds = %170
  %184 = load i32, ptr %12, align 4, !tbaa !32
  br label %185

185:                                              ; preds = %183, %179
  %186 = phi i32 [ %182, %179 ], [ %184, %183 ]
  store i32 %186, ptr %10, align 4, !tbaa !32
  br label %187

187:                                              ; preds = %185
  br label %188

188:                                              ; preds = %187
  call void @llvm.lifetime.end.p0(i64 4, ptr %15) #10
  call void @llvm.lifetime.end.p0(i64 4, ptr %14) #10
  call void @llvm.lifetime.end.p0(i64 4, ptr %13) #10
  br label %189

189:                                              ; preds = %188
  br label %190

190:                                              ; preds = %189
  %191 = load i32, ptr %10, align 4, !tbaa !32
  %192 = load ptr, ptr %5, align 8, !tbaa !93
  %193 = getelementptr inbounds nuw %struct.GetBitContext, ptr %192, i32 0, i32 2
  store i32 %191, ptr %193, align 8, !tbaa !99
  %194 = load i32, ptr %9, align 4, !tbaa !32
  call void @llvm.lifetime.end.p0(i64 4, ptr %12) #10
  call void @llvm.lifetime.end.p0(i64 4, ptr %11) #10
  call void @llvm.lifetime.end.p0(i64 4, ptr %10) #10
  call void @llvm.lifetime.end.p0(i64 4, ptr %9) #10
  ret i32 %194
}

; Function Attrs: inlinehint nounwind uwtable
define internal i32 @tm2_get_token(ptr noundef %0, ptr noundef %1) #4 {
  %3 = alloca i32, align 4
  %4 = alloca ptr, align 8
  %5 = alloca ptr, align 8
  %6 = alloca i32, align 4
  %7 = alloca i32, align 4
  store ptr %0, ptr %4, align 8, !tbaa !93
  store ptr %1, ptr %5, align 8, !tbaa !102
  call void @llvm.lifetime.start.p0(i64 4, ptr %6) #10
  %8 = load ptr, ptr %4, align 8, !tbaa !93
  %9 = load ptr, ptr %5, align 8, !tbaa !102
  %10 = getelementptr inbounds nuw %struct.TM2Codes, ptr %9, i32 0, i32 0
  %11 = getelementptr inbounds nuw %struct.VLC, ptr %10, i32 0, i32 1
  %12 = load ptr, ptr %11, align 8, !tbaa !115
  %13 = load ptr, ptr %5, align 8, !tbaa !102
  %14 = getelementptr inbounds nuw %struct.TM2Codes, ptr %13, i32 0, i32 1
  %15 = load i32, ptr %14, align 8, !tbaa !113
  %16 = call i32 @get_vlc2(ptr noundef %8, ptr noundef %12, i32 noundef %15, i32 noundef 1)
  store i32 %16, ptr %6, align 4, !tbaa !32
  %17 = load i32, ptr %6, align 4, !tbaa !32
  %18 = icmp slt i32 %17, 0
  br i1 %18, label %19, label %20

19:                                               ; preds = %2
  store i32 -1, ptr %3, align 4
  store i32 1, ptr %7, align 4
  br label %28

20:                                               ; preds = %2
  %21 = load ptr, ptr %5, align 8, !tbaa !102
  %22 = getelementptr inbounds nuw %struct.TM2Codes, ptr %21, i32 0, i32 2
  %23 = load ptr, ptr %22, align 8, !tbaa !77
  %24 = load i32, ptr %6, align 4, !tbaa !32
  %25 = sext i32 %24 to i64
  %26 = getelementptr inbounds i32, ptr %23, i64 %25
  %27 = load i32, ptr %26, align 4, !tbaa !32
  store i32 %27, ptr %3, align 4
  store i32 1, ptr %7, align 4
  br label %28

28:                                               ; preds = %20, %19
  call void @llvm.lifetime.end.p0(i64 4, ptr %6) #10
  %29 = load i32, ptr %3, align 4
  ret i32 %29
}