; Function Attrs: inlinehint mustprogress nofree norecurse nosync nounwind willreturn memory(read, argmem: readwrite, inaccessiblemem: none) uwtable
define internal fastcc i32 @tm2_get_token(ptr noundef captures(none) %0, ptr noundef nonnull readonly captures(none) %1) unnamed_addr #5 {
  %3 = getelementptr inbounds nuw i8, ptr %1, i64 8
  %4 = load ptr, ptr %3, align 8, !tbaa !115
  %5 = getelementptr inbounds nuw i8, ptr %1, i64 24
  %6 = load i32, ptr %5, align 8, !tbaa !71
  %7 = load ptr, ptr %0, align 8, !tbaa !57
  %8 = getelementptr inbounds nuw i8, ptr %0, i64 16
  %9 = load i32, ptr %8, align 8, !tbaa !61
  %10 = lshr i32 %9, 3
  %11 = zext nneg i32 %10 to i64
  %12 = getelementptr inbounds nuw i8, ptr %7, i64 %11
  %13 = load i32, ptr %12, align 1, !tbaa !55
  %14 = tail call i32 @llvm.bswap.i32(i32 %13)
  %15 = and i32 %9, 7
  %16 = shl i32 %14, %15
  %17 = sub nsw i32 32, %6
  %18 = lshr i32 %16, %17
  %19 = zext i32 %18 to i64
  %20 = getelementptr inbounds nuw %struct.VLCElem, ptr %4, i64 %19
  %21 = getelementptr inbounds nuw i8, ptr %20, i64 2
  %22 = load i16, ptr %21, align 2, !tbaa !55
  %23 = sext i16 %22 to i32
  %24 = load i16, ptr %20, align 2, !tbaa !55
  %25 = getelementptr inbounds nuw i8, ptr %0, i64 24
  %26 = load i32, ptr %25, align 8, !tbaa !59
  %27 = add i32 %9, %23
  %28 = tail call i32 @llvm.umin.i32(i32 %26, i32 %27)
  store i32 %28, ptr %8, align 8, !tbaa !61
  %29 = icmp slt i16 %24, 0
  br i1 %29, label %36, label %30

30:                                               ; preds = %2
  %31 = zext nneg i16 %24 to i64
  %32 = getelementptr inbounds nuw i8, ptr %1, i64 32
  %33 = load ptr, ptr %32, align 8, !tbaa !76
  %34 = getelementptr inbounds nuw i32, ptr %33, i64 %31
  %35 = load i32, ptr %34, align 4, !tbaa !56
  br label %36

36:                                               ; preds = %2, %30
  %.0 = phi i32 [ %35, %30 ], [ -1, %2 ]
  ret i32 %.0
}